target datalayout = "e-m:e-p270:32:32-p271:32:32-p272:64:64-i64:64-i128:128-f80:128-n8:16:32:64-S128"
target triple = "x86_64-pc-linux-gnu"

%struct.job_record = type { i32, ptr, ptr, ptr, ptr, i16, i32, i32, i32, ptr, i32, ptr, ptr, i16, ptr, double, i64, ptr, ptr, ptr, ptr, ptr, ptr, i32, ptr, i32, i64, i64, i32, i32, ptr, i16, i64, i64, i8, i32, ptr, ptr, ptr, ptr, ptr, ptr, ptr, ptr, i32, ptr, ptr, i32, ptr, i32, ptr, i32, ptr, i32, ptr, ptr, ptr, ptr, ptr, ptr, i32, i16, i64, ptr, ptr, ptr, ptr, %struct.acct_policy_limit_set_t, i16, ptr, ptr, ptr, ptr, ptr, i32, ptr, ptr, ptr, ptr, ptr, i32, i32, ptr, ptr, ptr, i16, ptr, ptr, i8, ptr, ptr, i64, i64, i8, i32, i32, i8, i32, ptr, i32, i64, i32, ptr, ptr, ptr, i8, i16, i64, i32, ptr, ptr, ptr, ptr, ptr, i16, i32, ptr, ptr, ptr, ptr, i32, ptr, i32, i16, i64, ptr, i32, i32, ptr, i64, ptr, ptr, i64, i32, i32, i64, i32, i32, ptr, ptr, ptr, ptr, ptr, ptr, ptr, ptr, ptr, ptr, ptr, ptr, i32, ptr, i16, i16, i16, i16, ptr, i32, i32, i8, i64 }
%struct.acct_policy_limit_set_t = type { i16, i16, ptr }
%struct.job_details_t = type { i32, ptr, i64, ptr, i32, ptr, i64, ptr, i16, i16, ptr, i16, i32, i32, i32, i16, ptr, i16, ptr, ptr, ptr, i16, ptr, ptr, ptr, ptr, i32, ptr, ptr, ptr, ptr, ptr, i32, i32, i32, ptr, ptr, i16, i32, i32, i32, i32, i32, i32, i16, i16, i32, i8, i8, i32, i32, i64, i64, i16, i32, ptr, ptr, i8, ptr, i32, ptr, i64, ptr, ptr, i16, i16, i16, i8, ptr, ptr, ptr, ptr, ptr, ptr, i64, i32, i32, i8, ptr, i16, ptr, ptr, i16 }
%struct.part_record = type { i32, ptr, ptr, ptr, ptr, ptr, ptr, i32, ptr, ptr, ptr, ptr, ptr, i32, i64, i32, ptr, ptr, ptr, ptr, ptr, i32, i32, ptr, i32, i32, i64, i32, i32, i16, i32, i32, i32, i32, ptr, ptr, ptr, ptr, ptr, double, i16, i16, i16, i16, ptr, ptr, i16, i16, i32, i16, i32, i32, i32, i32, i16, ptr, ptr, ptr }

@.str.24 = private unnamed_addr constant [69 x i8] c"%pJ required node list has more nodes than the job can use (%d > %u)\00", align 1

; Function Attrs: nounwind uwtable
define dso_local i32 @get_node_cnts(ptr noundef %0, i32 noundef %1, ptr noundef %2, ptr noundef %3, ptr noundef %4, ptr noundef %5) #0 {
  %7 = alloca ptr, align 8
  %8 = alloca i32, align 4
  %9 = alloca ptr, align 8
  %10 = alloca ptr, align 8
  %11 = alloca ptr, align 8
  %12 = alloca ptr, align 8
  %13 = alloca i32, align 4
  %14 = alloca i32, align 4
  %15 = alloca i32, align 4
  %16 = alloca i32, align 4
  store ptr %0, ptr %7, align 8
  store i32 %1, ptr %8, align 4
  store ptr %2, ptr %9, align 8
  store ptr %3, ptr %10, align 8
  store ptr %4, ptr %11, align 8
  store ptr %5, ptr %12, align 8
  call void @llvm.lifetime.start.p0(i64 4, ptr %13) #8
  store i32 0, ptr %13, align 4
  call void @llvm.lifetime.start.p0(i64 4, ptr %14) #8
  call void @llvm.lifetime.start.p0(i64 4, ptr %15) #8
  call void @llvm.lifetime.start.p0(i64 4, ptr %16) #8
  store i32 0, ptr %16, align 4
  %17 = load i32, ptr %8, align 4
  %18 = zext i32 %17 to i64
  %19 = and i64 %18, 1
  %20 = icmp ne i64 %19, 0
  br i1 %20, label %21, label %28

21:                                               ; preds = %6
  %22 = load ptr, ptr %7, align 8
  %23 = getelementptr inbounds nuw %struct.job_record, ptr %22, i32 0, i32 30
  %24 = load ptr, ptr %23, align 8
  %25 = getelementptr inbounds nuw %struct.job_details_t, ptr %24, i32 0, i32 42
  %26 = load i32, ptr %25, align 4
  %27 = load ptr, ptr %10, align 8
  store i32 %26, ptr %27, align 4
  br label %51

28:                                               ; preds = %6
  %29 = load ptr, ptr %7, align 8
  %30 = getelementptr inbounds nuw %struct.job_record, ptr %29, i32 0, i32 30
  %31 = load ptr, ptr %30, align 8
  %32 = getelementptr inbounds nuw %struct.job_details_t, ptr %31, i32 0, i32 42
  %33 = load i32, ptr %32, align 4
  %34 = load ptr, ptr %9, align 8
  %35 = getelementptr inbounds nuw %struct.part_record, ptr %34, i32 0, i32 32
  %36 = load i32, ptr %35, align 4
  %37 = icmp ugt i32 %33, %36
  br i1 %37, label %38, label %44

38:                                               ; preds = %28
  %39 = load ptr, ptr %7, align 8
  %40 = getelementptr inbounds nuw %struct.job_record, ptr %39, i32 0, i32 30
  %41 = load ptr, ptr %40, align 8
  %42 = getelementptr inbounds nuw %struct.job_details_t, ptr %41, i32 0, i32 42
  %43 = load i32, ptr %42, align 4
  br label %48

44:                                               ; preds = %28
  %45 = load ptr, ptr %9, align 8
  %46 = getelementptr inbounds nuw %struct.part_record, ptr %45, i32 0, i32 32
  %47 = load i32, ptr %46, align 4
  br label %48

48:                                               ; preds = %44, %38
  %49 = phi i32 [ %43, %38 ], [ %47, %44 ]
  %50 = load ptr, ptr %10, align 8
  store i32 %49, ptr %50, align 4
  br label %51

51:                                               ; preds = %48, %21
  %52 = load ptr, ptr %7, align 8
  %53 = getelementptr inbounds nuw %struct.job_record, ptr %52, i32 0, i32 30
  %54 = load ptr, ptr %53, align 8
  %55 = getelementptr inbounds nuw %struct.job_details_t, ptr %54, i32 0, i32 34
  %56 = load i32, ptr %55, align 8
  %57 = icmp ne i32 %56, 0
  br i1 %57, label %63, label %58

58:                                               ; preds = %51
  %59 = load ptr, ptr %9, align 8
  %60 = getelementptr inbounds nuw %struct.part_record, ptr %59, i32 0, i32 27
  %61 = load i32, ptr %60, align 8
  %62 = load ptr, ptr %12, align 8
  store i32 %61, ptr %62, align 4
  br label %99

63:                                               ; preds = %51
  %64 = load i32, ptr %8, align 4
  %65 = zext i32 %64 to i64
  %66 = and i64 %65, 2
  %67 = icmp ne i64 %66, 0
  br i1 %67, label %68, label %75

68:                                               ; preds = %63
  %69 = load ptr, ptr %7, align 8
  %70 = getelementptr inbounds nuw %struct.job_record, ptr %69, i32 0, i32 30
  %71 = load ptr, ptr %70, align 8
  %72 = getelementptr inbounds nuw %struct.job_details_t, ptr %71, i32 0, i32 34
  %73 = load i32, ptr %72, align 8
  %74 = load ptr, ptr %12, align 8
  store i32 %73, ptr %74, align 4
  br label %98

75:                                               ; preds = %63
  %76 = load ptr, ptr %7, align 8
  %77 = getelementptr inbounds nuw %struct.job_record, ptr %76, i32 0, i32 30
  %78 = load ptr, ptr %77, align 8
  %79 = getelementptr inbounds nuw %struct.job_details_t, ptr %78, i32 0, i32 34
  %80 = load i32, ptr %79, align 8
  %81 = load ptr, ptr %9, align 8
  %82 = getelementptr inbounds nuw %struct.part_record, ptr %81, i32 0, i32 27
  %83 = load i32, ptr %82, align 8
  %84 = icmp ult i32 %80, %83
  br i1 %84, label %85, label %91

85:                                               ; preds = %75
  %86 = load ptr, ptr %7, align 8
  %87 = getelementptr inbounds nuw %struct.job_record, ptr %86, i32 0, i32 30
  %88 = load ptr, ptr %87, align 8
  %89 = getelementptr inbounds nuw %struct.job_details_t, ptr %88, i32 0, i32 34
  %90 = load i32, ptr %89, align 8
  br label %95

91:                                               ; preds = %75
  %92 = load ptr, ptr %9, align 8
  %93 = getelementptr inbounds nuw %struct.part_record, ptr %92, i32 0, i32 27
  %94 = load i32, ptr %93, align 8
  br label %95

95:                                               ; preds = %91, %85
  %96 = phi i32 [ %90, %85 ], [ %94, %91 ]
  %97 = load ptr, ptr %12, align 8
  store i32 %96, ptr %97, align 4
  br label %98

98:                                               ; preds = %95, %68
  br label %99

99:                                               ; preds = %98, %58
  %100 = load ptr, ptr %7, align 8
  %101 = getelementptr inbounds nuw %struct.job_record, ptr %100, i32 0, i32 30
  %102 = load ptr, ptr %101, align 8
  %103 = getelementptr inbounds nuw %struct.job_details_t, ptr %102, i32 0, i32 60
  %104 = load ptr, ptr %103, align 8
  %105 = icmp ne ptr %104, null
  br i1 %105, label %106, label %146

106:                                              ; preds = %99
  %107 = load ptr, ptr %7, align 8
  %108 = getelementptr inbounds nuw %struct.job_record, ptr %107, i32 0, i32 30
  %109 = load ptr, ptr %108, align 8
  %110 = getelementptr inbounds nuw %struct.job_details_t, ptr %109, i32 0, i32 34
  %111 = load i32, ptr %110, align 8
  %112 = icmp ne i32 %111, 0
  br i1 %112, label %113, label %146

113:                                              ; preds = %106
  %114 = load ptr, ptr %7, align 8
  %115 = getelementptr inbounds nuw %struct.job_record, ptr %114, i32 0, i32 30
  %116 = load ptr, ptr %115, align 8
  %117 = getelementptr inbounds nuw %struct.job_details_t, ptr %116, i32 0, i32 60
  %118 = load ptr, ptr %117, align 8
  %119 = call i32 @bit_set_count(ptr noundef %118)
  store i32 %119, ptr %14, align 4
  %120 = load i32, ptr %14, align 4
  %121 = load ptr, ptr %7, align 8
  %122 = getelementptr inbounds nuw %struct.job_record, ptr %121, i32 0, i32 30
  %123 = load ptr, ptr %122, align 8
  %124 = getelementptr inbounds nuw %struct.job_details_t, ptr %123, i32 0, i32 34
  %125 = load i32, ptr %124, align 8
  %126 = icmp ugt i32 %120, %125
  br i1 %126, label %127, label %145

127:                                              ; preds = %113
  br label %128

128:                                              ; preds = %127
  br label %129

129:                                              ; preds = %128
  %130 = call i32 @get_log_level()
  %131 = icmp sge i32 %130, 3
  br i1 %131, label %132, label %140

132:                                              ; preds = %129
  %133 = load ptr, ptr %7, align 8
  %134 = load i32, ptr %14, align 4
  %135 = load ptr, ptr %7, align 8
  %136 = getelementptr inbounds nuw %struct.job_record, ptr %135, i32 0, i32 30
  %137 = load ptr, ptr %136, align 8
  %138 = getelementptr inbounds nuw %struct.job_details_t, ptr %137, i32 0, i32 34
  %139 = load i32, ptr %138, align 8
  call void (i32, ptr, ...) @log_var(i32 noundef 3, ptr noundef @.str.24, ptr noundef %133, i32 noundef %134, i32 noundef %139)
  br label %140

140:                                              ; preds = %132, %129
  br label %141

141:                                              ; preds = %140
  br label %142

142:                                              ; preds = %141
  br label %143

143:                                              ; preds = %142
  br label %144

144:                                              ; preds = %143
  store i32 2014, ptr %13, align 4
  br label %219

145:                                              ; preds = %113
  br label %146

146:                                              ; preds = %145, %106, %99
  %147 = load ptr, ptr %7, align 8
  %148 = call i32 @acct_policy_get_max_nodes(ptr noundef %147, ptr noundef %16)
  store i32 %148, ptr %15, align 4
  %149 = load ptr, ptr %12, align 8
  %150 = load i32, ptr %149, align 4
  %151 = load i32, ptr %15, align 4
  %152 = icmp ult i32 %150, %151
  br i1 %152, label %153, label %156

153:                                              ; preds = %146
  %154 = load ptr, ptr %12, align 8
  %155 = load i32, ptr %154, align 4
  br label %158

156:                                              ; preds = %146
  %157 = load i32, ptr %15, align 4
  br label %158

158:                                              ; preds = %156, %153
  %159 = phi i32 [ %155, %153 ], [ %157, %156 ]
  %160 = load ptr, ptr %12, align 8
  store i32 %159, ptr %160, align 4
  %161 = load ptr, ptr %12, align 8
  %162 = load i32, ptr %161, align 4
  %163 = icmp ult i32 %162, 500000
  br i1 %163, label %164, label %167

164:                                              ; preds = %158
  %165 = load ptr, ptr %12, align 8
  %166 = load i32, ptr %165, align 4
  br label %168

167:                                              ; preds = %158
  br label %168

168:                                              ; preds = %167, %164
  %169 = phi i32 [ %166, %164 ], [ 500000, %167 ]
  %170 = load ptr, ptr %12, align 8
  store i32 %169, ptr %170, align 4
  %171 = load ptr, ptr %7, align 8
  %172 = getelementptr inbounds nuw %struct.job_record, ptr %171, i32 0, i32 67
  %173 = getelementptr inbounds nuw %struct.acct_policy_limit_set_t, ptr %172, i32 0, i32 2
  %174 = load ptr, ptr %173, align 8
  %175 = getelementptr inbounds i16, ptr %174, i64 3
  %176 = load i16, ptr %175, align 2
  %177 = icmp ne i16 %176, 0
  br i1 %177, label %195, label %178

178:                                              ; preds = %168
  %179 = load ptr, ptr %7, align 8
  %180 = getelementptr inbounds nuw %struct.job_record, ptr %179, i32 0, i32 30
  %181 = load ptr, ptr %180, align 8
  %182 = getelementptr inbounds nuw %struct.job_details_t, ptr %181, i32 0, i32 34
  %183 = load i32, ptr %182, align 8
  %184 = icmp ne i32 %183, 0
  br i1 %184, label %185, label %195

185:                                              ; preds = %178
  %186 = load ptr, ptr %7, align 8
  %187 = getelementptr inbounds nuw %struct.job_record, ptr %186, i32 0, i32 16
  %188 = load i64, ptr %187, align 8
  %189 = and i64 %188, 512
  %190 = icmp ne i64 %189, 0
  br i1 %190, label %195, label %191

191:                                              ; preds = %185
  %192 = load ptr, ptr %12, align 8
  %193 = load i32, ptr %192, align 4
  %194 = load ptr, ptr %11, align 8
  store i32 %193, ptr %194, align 4
  br label %199

195:                                              ; preds = %185, %178, %168
  %196 = load ptr, ptr %10, align 8
  %197 = load i32, ptr %196, align 4
  %198 = load ptr, ptr %11, align 8
  store i32 %197, ptr %198, align 4
  br label %199

199:                                              ; preds = %195, %191
  %200 = load i32, ptr %15, align 4
  %201 = load ptr, ptr %10, align 8
  %202 = load i32, ptr %201, align 4
  %203 = icmp ult i32 %200, %202
  br i1 %203, label %204, label %210

204:                                              ; preds = %199
  store i32 2050, ptr %13, align 4
  %205 = load ptr, ptr %7, align 8
  %206 = getelementptr inbounds nuw %struct.job_record, ptr %205, i32 0, i32 125
  call void @slurm_xfree(ptr noundef %206)
  %207 = load i32, ptr %16, align 4
  %208 = load ptr, ptr %7, align 8
  %209 = getelementptr inbounds nuw %struct.job_record, ptr %208, i32 0, i32 126
  store i32 %207, ptr %209, align 8
  br label %219

210:                                              ; preds = %199
  %211 = load ptr, ptr %12, align 8
  %212 = load i32, ptr %211, align 4
  %213 = load ptr, ptr %10, align 8
  %214 = load i32, ptr %213, align 4
  %215 = icmp ult i32 %212, %214
  br i1 %215, label %216, label %217

216:                                              ; preds = %210
  store i32 2015, ptr %13, align 4
  br label %219

217:                                              ; preds = %210
  br label %218

218:                                              ; preds = %217
  br label %219

219:                                              ; preds = %218, %216, %204, %144
  %220 = load i32, ptr %13, align 4
  call void @llvm.lifetime.end.p0(i64 4, ptr %16) #8
  call void @llvm.lifetime.end.p0(i64 4, ptr %15) #8
  call void @llvm.lifetime.end.p0(i64 4, ptr %14) #8
  call void @llvm.lifetime.end.p0(i64 4, ptr %13) #8
  ret i32 %220
}