; Function Attrs: nounwind uwtable
define dso_local range(i32 0, 2051) i32 @get_node_cnts(ptr noundef %0, i32 noundef %1, ptr noundef readonly captures(none) %2, ptr noundef captures(none) initializes((0, 4)) %3, ptr noundef writeonly captures(none) %4, ptr noundef captures(none) initializes((0, 4)) %5) local_unnamed_addr #0 {
  %7 = alloca i32, align 4
  call void @llvm.lifetime.start.p0(i64 4, ptr nonnull %7) #14
  store i32 0, ptr %7, align 4
  %8 = zext i32 %1 to i64
  %9 = and i64 %8, 1
  %.not = icmp eq i64 %9, 0
  %10 = getelementptr inbounds nuw i8, ptr %0, i64 216
  %11 = load ptr, ptr %10, align 8
  %12 = getelementptr inbounds nuw i8, ptr %11, i64 284
  %13 = load i32, ptr %12, align 4
  br i1 %.not, label %14, label %17

14:                                               ; preds = %6
  %15 = getelementptr inbounds nuw i8, ptr %2, i64 220
  %16 = load i32, ptr %15, align 4
  %. = tail call i32 @llvm.umax.i32(i32 %13, i32 %16)
  br label %17

17:                                               ; preds = %6, %14
  %storemerge = phi i32 [ %., %14 ], [ %13, %6 ]
  store i32 %storemerge, ptr %3, align 4
  %18 = getelementptr inbounds nuw i8, ptr %0, i64 216
  %19 = load ptr, ptr %18, align 8
  %20 = getelementptr inbounds nuw i8, ptr %19, i64 240
  %21 = load i32, ptr %20, align 8
  %.not59 = icmp eq i32 %21, 0
  br i1 %.not59, label %22, label %25

22:                                               ; preds = %17
  %23 = getelementptr inbounds nuw i8, ptr %2, i64 200
  %24 = load i32, ptr %23, align 8
  br label %30

25:                                               ; preds = %17
  %26 = and i64 %8, 2
  %.not60 = icmp eq i64 %26, 0
  br i1 %.not60, label %27, label %30

27:                                               ; preds = %25
  %28 = getelementptr inbounds nuw i8, ptr %2, i64 200
  %29 = load i32, ptr %28, align 8
  %.67 = tail call i32 @llvm.umin.i32(i32 %21, i32 %29)
  br label %30

30:                                               ; preds = %25, %27, %22
  %.sink = phi i32 [ %.67, %27 ], [ %24, %22 ], [ %21, %25 ]
  store i32 %.sink, ptr %5, align 4
  %31 = load ptr, ptr %18, align 8
  %32 = getelementptr inbounds nuw i8, ptr %31, i64 376
  %33 = load ptr, ptr %32, align 8
  %.not61 = icmp eq ptr %33, null
  br i1 %.not61, label %50, label %34

34:                                               ; preds = %30
  %35 = getelementptr inbounds nuw i8, ptr %31, i64 240
  %36 = load i32, ptr %35, align 8
  %.not62 = icmp eq i32 %36, 0
  br i1 %.not62, label %50, label %37

37:                                               ; preds = %34
  %38 = tail call i32 @bit_set_count(ptr noundef nonnull %33) #14
  %39 = load ptr, ptr %18, align 8
  %40 = getelementptr inbounds nuw i8, ptr %39, i64 240
  %41 = load i32, ptr %40, align 8
  %42 = icmp ugt i32 %38, %41
  br i1 %42, label %43, label %50

43:                                               ; preds = %37
  %44 = tail call i32 @get_log_level() #14
  %45 = icmp sgt i32 %44, 2
  br i1 %45, label %46, label %78

46:                                               ; preds = %43
  %47 = load ptr, ptr %18, align 8
  %48 = getelementptr inbounds nuw i8, ptr %47, i64 240
  %49 = load i32, ptr %48, align 8
  tail call void (i32, ptr, ...) @log_var(i32 noundef 3, ptr noundef nonnull @.str.24, ptr noundef nonnull %0, i32 noundef %38, i32 noundef %49) #14
  br label %78

50:                                               ; preds = %37, %34, %30
  %51 = call i32 @acct_policy_get_max_nodes(ptr noundef nonnull %0, ptr noundef nonnull %7) #14
  %52 = load i32, ptr %5, align 4
  %.68 = call i32 @llvm.umin.i32(i32 %52, i32 %51)
  %53 = call i32 @llvm.umin.i32(i32 %.68, i32 500000)
  store i32 %53, ptr %5, align 4
  %54 = getelementptr inbounds nuw i8, ptr %0, i64 504
  %55 = load ptr, ptr %54, align 8
  %56 = getelementptr inbounds nuw i8, ptr %55, i64 6
  %57 = load i16, ptr %56, align 2
  %.not63 = icmp eq i16 %57, 0
  br i1 %.not63, label %58, label %66

58:                                               ; preds = %50
  %59 = load ptr, ptr %18, align 8
  %60 = getelementptr inbounds nuw i8, ptr %59, i64 240
  %61 = load i32, ptr %60, align 8
  %.not64 = icmp eq i32 %61, 0
  br i1 %.not64, label %66, label %62

62:                                               ; preds = %58
  %63 = getelementptr inbounds nuw i8, ptr %0, i64 112
  %64 = load i64, ptr %63, align 8
  %65 = and i64 %64, 512
  %.not65 = icmp eq i64 %65, 0
  br i1 %.not65, label %68, label %66

66:                                               ; preds = %62, %58, %50
  %67 = load i32, ptr %3, align 4
  br label %68

68:                                               ; preds = %62, %66
  %storemerge66 = phi i32 [ %67, %66 ], [ %53, %62 ]
  store i32 %storemerge66, ptr %4, align 4
  %69 = load i32, ptr %3, align 4
  %70 = icmp ult i32 %51, %69
  br i1 %70, label %71, label %75

71:                                               ; preds = %68
  %72 = getelementptr inbounds nuw i8, ptr %0, i64 920
  call void @slurm_xfree(ptr noundef nonnull %72) #14
  %73 = load i32, ptr %7, align 4
  %74 = getelementptr inbounds nuw i8, ptr %0, i64 928
  store i32 %73, ptr %74, align 8
  br label %78

75:                                               ; preds = %68
  %76 = load i32, ptr %5, align 4
  %77 = icmp ult i32 %76, %69
  %spec.select = select i1 %77, i32 2015, i32 0
  br label %78

78:                                               ; preds = %75, %43, %46, %71
  %.0 = phi i32 [ 2050, %71 ], [ 2014, %46 ], [ 2014, %43 ], [ %spec.select, %75 ]
  call void @llvm.lifetime.end.p0(i64 4, ptr nonnull %7) #14
  ret i32 %.0
}